target datalayout = "e-m:e-p270:32:32-p271:32:32-p272:64:64-i64:64-i128:128-f80:128-n8:16:32:64-S128"
target triple = "x86_64-pc-linux-gnu"

%"class.smt::theory_array" = type <{ %"class.smt::theory_array_base.base", [7 x i8], %class.ptr_vector.20, ptr, %"struct.smt::theory_array_stats", [4 x i8], %class.union_find, %class.trail_stack, i32, [4 x i8] }>
%"class.smt::theory_array_base.base" = type <{ %"class.smt::theory.base", i8, [2 x i8], i32, [4 x i8], %class.svector.1, %class.ptr_vector, %class.svector.3, %class.svector.3, %class.svector.3, %class.scoped_ptr, %class.ptr_vector.5, %class.obj_map, %class.ptr_hashtable, %class.svector.9, ptr, %class.ptr_vector, %class.ptr_vector.11, %class.svector.1, %class.obj_map.13, %class.ptr_vector, %class.ptr_vector.18, i8 }>
%"class.smt::theory.base" = type <{ ptr, i32, [4 x i8], ptr, ptr, %class.ptr_vector, %class.svector, i32, i8 }>
%class.svector = type { %class.vector.0 }
%class.vector.0 = type { ptr }
%class.svector.3 = type { %class.vector.4 }
%class.vector.4 = type { ptr }
%class.scoped_ptr = type { ptr }
%class.ptr_vector.5 = type { %class.vector.6 }
%class.vector.6 = type { ptr }
%class.obj_map = type { %class.core_hashtable }
%class.core_hashtable = type <{ ptr, i32, i32, i32, [4 x i8] }>
%class.ptr_hashtable = type { %class.core_hashtable.base.8, [4 x i8] }
%class.core_hashtable.base.8 = type <{ ptr, i32, i32, i32 }>
%class.svector.9 = type { %class.vector.10 }
%class.vector.10 = type { ptr }
%class.ptr_vector.11 = type { %class.vector.12 }
%class.vector.12 = type { ptr }
%class.svector.1 = type { %class.vector.2 }
%class.vector.2 = type { ptr }
%class.obj_map.13 = type { %class.core_hashtable.14 }
%class.core_hashtable.14 = type <{ ptr, i32, i32, i32, [4 x i8] }>
%class.ptr_vector = type { %class.vector }
%class.vector = type { ptr }
%class.ptr_vector.18 = type { %class.vector.19 }
%class.vector.19 = type { ptr }
%class.ptr_vector.20 = type { %class.vector.21 }
%class.vector.21 = type { ptr }
%"struct.smt::theory_array_stats" = type { i32, i32, i32, i32, i32, i32, i32, i32, i32, i32, i32, i32, i32 }
%class.union_find = type { ptr, ptr, %class.svector, %class.svector, %class.svector, %"class.union_find<smt::theory_array>::mk_var_trail" }
%"class.union_find<smt::theory_array>::mk_var_trail" = type { %class.trail, ptr }
%class.trail = type { ptr }
%class.trail_stack = type { %class.ptr_vector.22, %class.svector, %class.region }
%class.ptr_vector.22 = type { %class.vector.23 }
%class.vector.23 = type { ptr }
%class.region = type { ptr, ptr, ptr, ptr, ptr }
%"struct.smt::theory_array::var_data" = type <{ %class.ptr_vector, %class.ptr_vector, %class.ptr_vector, i8, i8, i8, [5 x i8] }>
%struct.theory_array_params = type <{ i8, i8, [2 x i8], i32, i8, i8, [2 x i8], i32, i8, i8, i8, i8, i32, i8, [3 x i8] }>
%"class.smt::theory" = type <{ ptr, i32, [4 x i8], ptr, ptr, %class.ptr_vector, %class.svector, i32, i8, [3 x i8] }>

; Function Attrs: mustprogress nounwind uwtable
define linkonce_odr hidden noundef nonnull align 4 dereferenceable(4) ptr @_ZNK6vectorIjLb0EjEixEj(ptr noundef nonnull align 8 dereferenceable(8) %0, i32 noundef %1) #4 comdat align 2 {
  %3 = alloca ptr, align 8
  %4 = alloca i32, align 4
  store ptr %0, ptr %3, align 8, !tbaa !682
  store i32 %1, ptr %4, align 4, !tbaa !8
  %5 = load ptr, ptr %3, align 8
  %6 = getelementptr inbounds nuw %class.vector.0, ptr %5, i32 0, i32 0
  %7 = load ptr, ptr %6, align 8, !tbaa !687
  %8 = load i32, ptr %4, align 4, !tbaa !8
  %9 = zext i32 %8 to i64
  %10 = getelementptr inbounds nuw i32, ptr %7, i64 %9
  ret ptr %10
}

; Function Attrs: mustprogress nounwind uwtable
define linkonce_odr hidden noundef nonnull align 8 dereferenceable(8) ptr @_ZNK6vectorIPN3smt5enodeELb0EjEixEj(ptr noundef nonnull align 8 dereferenceable(8) %0, i32 noundef %1) #4 comdat align 2 {
  %3 = alloca ptr, align 8
  %4 = alloca i32, align 4
  store ptr %0, ptr %3, align 8, !tbaa !585
  store i32 %1, ptr %4, align 4, !tbaa !8
  %5 = load ptr, ptr %3, align 8
  %6 = getelementptr inbounds nuw %class.vector, ptr %5, i32 0, i32 0
  %7 = load ptr, ptr %6, align 8, !tbaa !587
  %8 = load i32, ptr %4, align 4, !tbaa !8
  %9 = zext i32 %8 to i64
  %10 = getelementptr inbounds nuw ptr, ptr %7, i64 %9
  ret ptr %10
}

; Function Attrs: mustprogress uwtable
define linkonce_odr hidden noundef i32 @_ZNK10union_findIN3smt12theory_arrayEE4findEj(ptr noundef nonnull align 8 dereferenceable(56) %0, i32 noundef %1) #6 comdat align 2 {
  %3 = alloca i32, align 4
  %4 = alloca ptr, align 8
  %5 = alloca i32, align 4
  %6 = alloca i32, align 4
  %7 = alloca i32, align 4
  store ptr %0, ptr %4, align 8, !tbaa !567
  store i32 %1, ptr %5, align 4, !tbaa !8
  %8 = load ptr, ptr %4, align 8
  br label %9

9:                                                ; preds = %2, %23
  call void @llvm.lifetime.start.p0(i64 4, ptr %6) #3
  %10 = getelementptr inbounds nuw %class.union_find, ptr %8, i32 0, i32 2
  %11 = load i32, ptr %5, align 4, !tbaa !8
  %12 = call noundef nonnull align 4 dereferenceable(4) ptr @_ZNK6vectorIjLb0EjEixEj(ptr noundef nonnull align 8 dereferenceable(8) %10, i32 noundef %11)
  %13 = load i32, ptr %12, align 4, !tbaa !8
  store i32 %13, ptr %6, align 4, !tbaa !8
  %14 = load i32, ptr %6, align 4, !tbaa !8
  %15 = load i32, ptr %5, align 4, !tbaa !8
  %16 = icmp eq i32 %14, %15
  br i1 %16, label %17, label %19

17:                                               ; preds = %9
  %18 = load i32, ptr %5, align 4, !tbaa !8
  store i32 %18, ptr %3, align 4
  store i32 1, ptr %7, align 4
  br label %21

19:                                               ; preds = %9
  %20 = load i32, ptr %6, align 4, !tbaa !8
  store i32 %20, ptr %5, align 4, !tbaa !8
  store i32 0, ptr %7, align 4
  br label %21

21:                                               ; preds = %19, %17
  call void @llvm.lifetime.end.p0(i64 4, ptr %6) #3
  %22 = load i32, ptr %7, align 4
  switch i32 %22, label %26 [
    i32 0, label %23
    i32 1, label %24
  ]

23:                                               ; preds = %21
  br label %9, !llvm.loop !748

24:                                               ; preds = %21
  %25 = load i32, ptr %3, align 4
  ret i32 %25

26:                                               ; preds = %21
  unreachable
}

; Function Attrs: mustprogress uwtable
define hidden void @_ZN3smt12theory_array26instantiate_extensionalityEPNS_5enodeES2_(ptr noundef nonnull align 8 dereferenceable(444) %0, ptr noundef %1, ptr noundef %2) #6 align 2 {
  %4 = alloca ptr, align 8
  %5 = alloca ptr, align 8
  %6 = alloca ptr, align 8
  store ptr %0, ptr %4, align 8, !tbaa !28
  store ptr %1, ptr %5, align 8, !tbaa !581
  store ptr %2, ptr %6, align 8, !tbaa !581
  %7 = load ptr, ptr %4, align 8
  %8 = getelementptr inbounds nuw %"class.smt::theory_array", ptr %7, i32 0, i32 3
  %9 = load ptr, ptr %8, align 8, !tbaa !588
  %10 = getelementptr inbounds nuw %struct.theory_array_params, ptr %9, i32 0, i32 5
  %11 = load i8, ptr %10, align 1, !tbaa !625, !range !12, !noundef !13
  %12 = trunc i8 %11 to i1
  br i1 %12, label %13, label %22

13:                                               ; preds = %3
  %14 = load ptr, ptr %5, align 8, !tbaa !581
  %15 = load ptr, ptr %6, align 8, !tbaa !581
  %16 = call noundef zeroext i1 @_ZN3smt17theory_array_base21assert_extensionalityEPNS_5enodeES2_(ptr noundef nonnull align 8 dereferenceable(249) %7, ptr noundef %14, ptr noundef %15)
  br i1 %16, label %17, label %22

17:                                               ; preds = %13
  %18 = getelementptr inbounds nuw %"class.smt::theory_array", ptr %7, i32 0, i32 4
  %19 = getelementptr inbounds nuw %"struct.smt::theory_array_stats", ptr %18, i32 0, i32 3
  %20 = load i32, ptr %19, align 4, !tbaa !626
  %21 = add i32 %20, 1
  store i32 %21, ptr %19, align 4, !tbaa !626
  br label %22

22:                                               ; preds = %17, %13, %3
  ret void
}

; Function Attrs: mustprogress nounwind uwtable
define linkonce_odr hidden noundef ptr @_ZNK3smt6theory9get_enodeEi(ptr noundef nonnull align 8 dereferenceable(53) %0, i32 noundef %1) #4 comdat align 2 {
  %3 = alloca ptr, align 8
  %4 = alloca i32, align 4
  store ptr %0, ptr %3, align 8, !tbaa !599
  store i32 %1, ptr %4, align 4, !tbaa !8
  %5 = load ptr, ptr %3, align 8
  %6 = getelementptr inbounds nuw %"class.smt::theory", ptr %5, i32 0, i32 5
  %7 = load i32, ptr %4, align 4, !tbaa !8
  %8 = call noundef nonnull align 8 dereferenceable(8) ptr @_ZNK6vectorIPN3smt5enodeELb0EjEixEj(ptr noundef nonnull align 8 dereferenceable(8) %6, i32 noundef %7)
  %9 = load ptr, ptr %8, align 8, !tbaa !581
  ret ptr %9
}

; Function Attrs: mustprogress nounwind uwtable
define linkonce_odr hidden noundef nonnull align 8 dereferenceable(8) ptr @_ZN6vectorIPN3smt12theory_array8var_dataELb0EjEixEj(ptr noundef nonnull align 8 dereferenceable(8) %0, i32 noundef %1) #4 comdat align 2 {
  %3 = alloca ptr, align 8
  %4 = alloca i32, align 4
  store ptr %0, ptr %3, align 8, !tbaa !569
  store i32 %1, ptr %4, align 4, !tbaa !8
  %5 = load ptr, ptr %3, align 8
  %6 = getelementptr inbounds nuw %class.vector.21, ptr %5, i32 0, i32 0
  %7 = load ptr, ptr %6, align 8, !tbaa !578
  %8 = load i32, ptr %4, align 4, !tbaa !8
  %9 = zext i32 %8 to i64
  %10 = getelementptr inbounds nuw ptr, ptr %7, i64 %9
  ret ptr %10
}

; Function Attrs: mustprogress uwtable
define linkonce_odr hidden noundef i32 @_ZNK3smt12theory_array4findEi(ptr noundef nonnull align 8 dereferenceable(444) %0, i32 noundef %1) #6 comdat align 2 {
  %3 = alloca ptr, align 8
  %4 = alloca i32, align 4
  store ptr %0, ptr %3, align 8, !tbaa !28
  store i32 %1, ptr %4, align 4, !tbaa !8
  %5 = load ptr, ptr %3, align 8
  %6 = getelementptr inbounds nuw %"class.smt::theory_array", ptr %5, i32 0, i32 6
  %7 = load i32, ptr %4, align 4, !tbaa !8
  %8 = call noundef i32 @_ZNK10union_findIN3smt12theory_arrayEE4findEj(ptr noundef nonnull align 8 dereferenceable(56) %6, i32 noundef %7)
  ret i32 %8
}

; Function Attrs: mustprogress uwtable
define hidden void @_ZN3smt12theory_array12new_diseq_ehEii(ptr noundef nonnull align 8 dereferenceable(444) %0, i32 noundef %1, i32 noundef %2) unnamed_addr #6 align 2 {
  %4 = alloca ptr, align 8
  %5 = alloca i32, align 4
  %6 = alloca i32, align 4
  %7 = alloca ptr, align 8
  store ptr %0, ptr %4, align 8, !tbaa !28
  store i32 %1, ptr %5, align 4, !tbaa !8
  store i32 %2, ptr %6, align 4, !tbaa !8
  %8 = load ptr, ptr %4, align 8
  %9 = load i32, ptr %5, align 4, !tbaa !8
  %10 = call noundef i32 @_ZNK3smt12theory_array4findEi(ptr noundef nonnull align 8 dereferenceable(444) %8, i32 noundef %9)
  store i32 %10, ptr %5, align 4, !tbaa !8
  %11 = load i32, ptr %6, align 4, !tbaa !8
  %12 = call noundef i32 @_ZNK3smt12theory_array4findEi(ptr noundef nonnull align 8 dereferenceable(444) %8, i32 noundef %11)
  store i32 %12, ptr %6, align 4, !tbaa !8
  call void @llvm.lifetime.start.p0(i64 8, ptr %7) #3
  %13 = getelementptr inbounds nuw %"class.smt::theory_array", ptr %8, i32 0, i32 2
  %14 = load i32, ptr %5, align 4, !tbaa !8
  %15 = call noundef nonnull align 8 dereferenceable(8) ptr @_ZN6vectorIPN3smt12theory_array8var_dataELb0EjEixEj(ptr noundef nonnull align 8 dereferenceable(8) %13, i32 noundef %14)
  %16 = load ptr, ptr %15, align 8, !tbaa !574
  store ptr %16, ptr %7, align 8, !tbaa !574
  %17 = load ptr, ptr %7, align 8, !tbaa !574
  %18 = getelementptr inbounds nuw %"struct.smt::theory_array::var_data", ptr %17, i32 0, i32 4
  %19 = load i8, ptr %18, align 1, !tbaa !596, !range !12, !noundef !13
  %20 = trunc i8 %19 to i1
  br i1 %20, label %21, label %26

21:                                               ; preds = %3
  %22 = load i32, ptr %5, align 4, !tbaa !8
  %23 = call noundef ptr @_ZNK3smt6theory9get_enodeEi(ptr noundef nonnull align 8 dereferenceable(53) %8, i32 noundef %22)
  %24 = load i32, ptr %6, align 4, !tbaa !8
  %25 = call noundef ptr @_ZNK3smt6theory9get_enodeEi(ptr noundef nonnull align 8 dereferenceable(53) %8, i32 noundef %24)
  call void @_ZN3smt12theory_array26instantiate_extensionalityEPNS_5enodeES2_(ptr noundef nonnull align 8 dereferenceable(444) %8, ptr noundef %23, ptr noundef %25)
  br label %26

26:                                               ; preds = %21, %3
  call void @llvm.lifetime.end.p0(i64 8, ptr %7) #3
  ret void
}