; Function Attrs: mustprogress uwtable
define hidden void @_ZN3smt12theory_array12new_diseq_ehEii(ptr noundef nonnull align 8 dereferenceable(444) %0, i32 noundef %1, i32 noundef %2) unnamed_addr #4 align 2 {
  %4 = getelementptr inbounds nuw i8, ptr %0, i64 344
  %5 = load ptr, ptr %4, align 8, !tbaa !548
  br label %6

6:                                                ; preds = %6, %3
  %.08.i.i = phi i32 [ %1, %3 ], [ %9, %6 ]
  %7 = zext i32 %.08.i.i to i64
  %8 = getelementptr inbounds nuw i32, ptr %5, i64 %7
  %9 = load i32, ptr %8, align 4, !tbaa !560
  %.not.i.i = icmp eq i32 %9, %.08.i.i
  br i1 %.not.i.i, label %_ZNK3smt12theory_array4findEi.exit, label %6

_ZNK3smt12theory_array4findEi.exit:               ; preds = %6, %_ZNK3smt12theory_array4findEi.exit
  %.08.i.i6 = phi i32 [ %12, %_ZNK3smt12theory_array4findEi.exit ], [ %2, %6 ]
  %10 = zext i32 %.08.i.i6 to i64
  %11 = getelementptr inbounds nuw i32, ptr %5, i64 %10
  %12 = load i32, ptr %11, align 4, !tbaa !560
  %.not.i.i7 = icmp eq i32 %12, %.08.i.i6
  br i1 %.not.i.i7, label %_ZNK3smt12theory_array4findEi.exit8, label %_ZNK3smt12theory_array4findEi.exit

_ZNK3smt12theory_array4findEi.exit8:              ; preds = %_ZNK3smt12theory_array4findEi.exit
  %13 = getelementptr inbounds nuw i8, ptr %0, i64 256
  %14 = load ptr, ptr %13, align 8, !tbaa !6
  %15 = getelementptr inbounds nuw ptr, ptr %14, i64 %7
  %16 = load ptr, ptr %15, align 8, !tbaa !561
  %17 = getelementptr inbounds nuw i8, ptr %16, i64 25
  %18 = load i8, ptr %17, align 1, !tbaa !605, !range !568, !noundef !569
  %19 = trunc nuw i8 %18 to i1
  br i1 %19, label %20, label %_ZN3smt12theory_array26instantiate_extensionalityEPNS_5enodeES2_.exit

20:                                               ; preds = %_ZNK3smt12theory_array4findEi.exit8
  %21 = getelementptr inbounds nuw i8, ptr %0, i64 264
  %22 = load ptr, ptr %21, align 8, !tbaa !574
  %23 = getelementptr inbounds nuw i8, ptr %22, i64 9
  %24 = load i8, ptr %23, align 1, !tbaa !621, !range !568, !noundef !569
  %25 = trunc nuw i8 %24 to i1
  br i1 %25, label %26, label %_ZN3smt12theory_array26instantiate_extensionalityEPNS_5enodeES2_.exit

26:                                               ; preds = %20
  %27 = getelementptr inbounds nuw i8, ptr %0, i64 32
  %28 = load ptr, ptr %27, align 8, !tbaa !550
  %29 = getelementptr inbounds nuw ptr, ptr %28, i64 %10
  %30 = load ptr, ptr %29, align 8, !tbaa !570
  %31 = getelementptr inbounds nuw ptr, ptr %28, i64 %7
  %32 = load ptr, ptr %31, align 8, !tbaa !570
  %33 = tail call noundef zeroext i1 @_ZN3smt17theory_array_base21assert_extensionalityEPNS_5enodeES2_(ptr noundef nonnull align 8 dereferenceable(444) %0, ptr noundef %32, ptr noundef %30)
  br i1 %33, label %34, label %_ZN3smt12theory_array26instantiate_extensionalityEPNS_5enodeES2_.exit

34:                                               ; preds = %26
  %35 = getelementptr inbounds nuw i8, ptr %0, i64 284
  %36 = load i32, ptr %35, align 4, !tbaa !622
  %37 = add i32 %36, 1
  store i32 %37, ptr %35, align 4, !tbaa !622
  br label %_ZN3smt12theory_array26instantiate_extensionalityEPNS_5enodeES2_.exit

_ZN3smt12theory_array26instantiate_extensionalityEPNS_5enodeES2_.exit: ; preds = %34, %26, %20, %_ZNK3smt12theory_array4findEi.exit8
  ret void
}